target datalayout = "e-m:e-p270:32:32-p271:32:32-p272:64:64-i64:64-i128:128-f80:128-n8:16:32:64-S128"
target triple = "x86_64-pc-linux-gnu"

%struct.AVFilterContext = type { ptr, ptr, ptr, ptr, ptr, i32, ptr, ptr, i32, ptr, ptr, i32, i32, ptr, ptr, ptr, ptr, i32, ptr, i32, i32 }
%struct.AFFTFiltContext = type { ptr, ptr, ptr, i32, ptr, ptr, ptr, ptr, ptr, ptr, ptr, i32, i32, i32, ptr, ptr, i32, float, ptr, ptr, i32, ptr }

; Function Attrs: nounwind uwtable
define internal i32 @tx_channel(ptr noundef %0, ptr noundef %1, i32 noundef %2, i32 noundef %3) #1 {
  %5 = alloca ptr, align 8
  %6 = alloca ptr, align 8
  %7 = alloca i32, align 4
  %8 = alloca i32, align 4
  %9 = alloca ptr, align 8
  %10 = alloca i32, align 4
  %11 = alloca i32, align 4
  %12 = alloca i32, align 4
  %13 = alloca i32, align 4
  %14 = alloca ptr, align 8
  %15 = alloca ptr, align 8
  store ptr %0, ptr %5, align 8, !tbaa !4
  store ptr %1, ptr %6, align 8, !tbaa !107
  store i32 %2, ptr %7, align 4, !tbaa !24
  store i32 %3, ptr %8, align 4, !tbaa !24
  call void @llvm.lifetime.start.p0(i64 8, ptr %9) #11
  %16 = load ptr, ptr %5, align 8, !tbaa !4
  %17 = getelementptr inbounds nuw %struct.AVFilterContext, ptr %16, i32 0, i32 9
  %18 = load ptr, ptr %17, align 8, !tbaa !9
  store ptr %18, ptr %9, align 8, !tbaa !22
  call void @llvm.lifetime.start.p0(i64 4, ptr %10) #11
  %19 = load ptr, ptr %9, align 8, !tbaa !22
  %20 = getelementptr inbounds nuw %struct.AFFTFiltContext, ptr %19, i32 0, i32 12
  %21 = load i32, ptr %20, align 4, !tbaa !25
  store i32 %21, ptr %10, align 4, !tbaa !24
  call void @llvm.lifetime.start.p0(i64 4, ptr %11) #11
  %22 = load i32, ptr %10, align 4, !tbaa !24
  %23 = load i32, ptr %7, align 4, !tbaa !24
  %24 = mul nsw i32 %22, %23
  %25 = load i32, ptr %8, align 4, !tbaa !24
  %26 = sdiv i32 %24, %25
  store i32 %26, ptr %11, align 4, !tbaa !24
  call void @llvm.lifetime.start.p0(i64 4, ptr %12) #11
  %27 = load i32, ptr %10, align 4, !tbaa !24
  %28 = load i32, ptr %7, align 4, !tbaa !24
  %29 = add nsw i32 %28, 1
  %30 = mul nsw i32 %27, %29
  %31 = load i32, ptr %8, align 4, !tbaa !24
  %32 = sdiv i32 %30, %31
  store i32 %32, ptr %12, align 4, !tbaa !24
  call void @llvm.lifetime.start.p0(i64 4, ptr %13) #11
  %33 = load i32, ptr %11, align 4, !tbaa !24
  store i32 %33, ptr %13, align 4, !tbaa !24
  br label %34

34:                                               ; preds = %66, %4
  %35 = load i32, ptr %13, align 4, !tbaa !24
  %36 = load i32, ptr %12, align 4, !tbaa !24
  %37 = icmp slt i32 %35, %36
  br i1 %37, label %39, label %38

38:                                               ; preds = %34
  call void @llvm.lifetime.end.p0(i64 4, ptr %13) #11
  br label %69

39:                                               ; preds = %34
  call void @llvm.lifetime.start.p0(i64 8, ptr %14) #11
  %40 = load ptr, ptr %9, align 8, !tbaa !22
  %41 = getelementptr inbounds nuw %struct.AFFTFiltContext, ptr %40, i32 0, i32 8
  %42 = load ptr, ptr %41, align 8, !tbaa !35
  %43 = load i32, ptr %13, align 4, !tbaa !24
  %44 = sext i32 %43 to i64
  %45 = getelementptr inbounds ptr, ptr %42, i64 %44
  %46 = load ptr, ptr %45, align 8, !tbaa !69
  store ptr %46, ptr %14, align 8, !tbaa !69
  call void @llvm.lifetime.start.p0(i64 8, ptr %15) #11
  %47 = load ptr, ptr %9, align 8, !tbaa !22
  %48 = getelementptr inbounds nuw %struct.AFFTFiltContext, ptr %47, i32 0, i32 9
  %49 = load ptr, ptr %48, align 8, !tbaa !36
  %50 = load i32, ptr %13, align 4, !tbaa !24
  %51 = sext i32 %50 to i64
  %52 = getelementptr inbounds ptr, ptr %49, i64 %51
  %53 = load ptr, ptr %52, align 8, !tbaa !69
  store ptr %53, ptr %15, align 8, !tbaa !69
  %54 = load ptr, ptr %9, align 8, !tbaa !22
  %55 = getelementptr inbounds nuw %struct.AFFTFiltContext, ptr %54, i32 0, i32 6
  %56 = load ptr, ptr %55, align 8, !tbaa !122
  %57 = load ptr, ptr %9, align 8, !tbaa !22
  %58 = getelementptr inbounds nuw %struct.AFFTFiltContext, ptr %57, i32 0, i32 4
  %59 = load ptr, ptr %58, align 8, !tbaa !34
  %60 = load i32, ptr %13, align 4, !tbaa !24
  %61 = sext i32 %60 to i64
  %62 = getelementptr inbounds ptr, ptr %59, i64 %61
  %63 = load ptr, ptr %62, align 8, !tbaa !123
  %64 = load ptr, ptr %15, align 8, !tbaa !69
  %65 = load ptr, ptr %14, align 8, !tbaa !69
  call void %56(ptr noundef %63, ptr noundef %64, ptr noundef %65, i64 noundef 8)
  call void @llvm.lifetime.end.p0(i64 8, ptr %15) #11
  call void @llvm.lifetime.end.p0(i64 8, ptr %14) #11
  br label %66

66:                                               ; preds = %39
  %67 = load i32, ptr %13, align 4, !tbaa !24
  %68 = add nsw i32 %67, 1
  store i32 %68, ptr %13, align 4, !tbaa !24
  br label %34, !llvm.loop !125

69:                                               ; preds = %38
  call void @llvm.lifetime.end.p0(i64 4, ptr %12) #11
  call void @llvm.lifetime.end.p0(i64 4, ptr %11) #11
  call void @llvm.lifetime.end.p0(i64 4, ptr %10) #11
  call void @llvm.lifetime.end.p0(i64 8, ptr %9) #11
  ret i32 0
}