; Function Attrs: nounwind uwtable
define internal noundef i32 @tx_channel(ptr noundef readonly captures(none) %0, ptr readnone captures(none) %1, i32 noundef %2, i32 noundef %3) #1 {
  %5 = getelementptr inbounds nuw i8, ptr %0, i64 72
  %6 = load ptr, ptr %5, align 8, !tbaa !4
  %7 = getelementptr inbounds nuw i8, ptr %6, i64 92
  %8 = load i32, ptr %7, align 4, !tbaa !20
  %9 = mul nsw i32 %8, %2
  %10 = sdiv i32 %9, %3
  %11 = add nsw i32 %2, 1
  %12 = mul nsw i32 %8, %11
  %13 = sdiv i32 %12, %3
  %14 = icmp slt i32 %10, %13
  br i1 %14, label %.lr.ph, label %._crit_edge

.lr.ph:                                           ; preds = %4
  %15 = getelementptr inbounds nuw i8, ptr %6, i64 64
  %16 = getelementptr inbounds nuw i8, ptr %6, i64 72
  %17 = getelementptr inbounds nuw i8, ptr %6, i64 48
  %18 = getelementptr inbounds nuw i8, ptr %6, i64 32
  %19 = sext i32 %10 to i64
  br label %20

._crit_edge:                                      ; preds = %20, %4
  ret i32 0

20:                                               ; preds = %.lr.ph, %20
  %indvars.iv = phi i64 [ %19, %.lr.ph ], [ %indvars.iv.next, %20 ]
  %21 = load ptr, ptr %15, align 8, !tbaa !30
  %22 = getelementptr inbounds ptr, ptr %21, i64 %indvars.iv
  %23 = load ptr, ptr %22, align 8, !tbaa !67
  %24 = load ptr, ptr %16, align 8, !tbaa !31
  %25 = getelementptr inbounds ptr, ptr %24, i64 %indvars.iv
  %26 = load ptr, ptr %25, align 8, !tbaa !67
  %27 = load ptr, ptr %17, align 8, !tbaa !117
  %28 = load ptr, ptr %18, align 8, !tbaa !29
  %29 = getelementptr inbounds ptr, ptr %28, i64 %indvars.iv
  %30 = load ptr, ptr %29, align 8, !tbaa !118
  tail call void %27(ptr noundef %30, ptr noundef %26, ptr noundef %23, i64 noundef 8) #12
  %indvars.iv.next = add nsw i64 %indvars.iv, 1
  %lftr.wideiv = trunc i64 %indvars.iv.next to i32
  %exitcond.not = icmp eq i32 %13, %lftr.wideiv
  br i1 %exitcond.not, label %._crit_edge, label %20, !llvm.loop !120
}